; ModuleID = '11/139.c'
source_filename = "11/139.c"
target datalayout = "e-m:e-p270:32:32-p271:32:32-p272:64:64-i64:64-f80:128-n8:16:32:64-S128"
target triple = "x86_64-pc-linux-gnu"

@.str = private unnamed_addr constant [9 x i8] c"%d %d %d\00", align 1
@days = internal global [13 x i32] [i32 0, i32 31, i32 28, i32 31, i32 30, i32 31, i32 30, i32 31, i32 31, i32 30, i32 31, i32 30, i32 31], align 16
@.str.1 = private unnamed_addr constant [4 x i8] c"%d\0A\00", align 1

; Function Attrs: noinline nounwind uwtable
define dso_local i32 @main() #0 {
  %1 = alloca i32, align 4
  %2 = alloca i32, align 4
  %3 = alloca i32, align 4
  %4 = alloca i32, align 4
  %5 = alloca i32, align 4
  %6 = alloca i32, align 4
  store i32 0, i32* %1, align 4
  store i32 0, i32* %5, align 4
  %7 = call i32 (i8*, ...) @__isoc99_scanf(i8* getelementptr inbounds ([9 x i8], [9 x i8]* @.str, i64 0, i64 0), i32* %2, i32* %3, i32* %4)
  store i32 1, i32* %6, align 4
  br label %8

8:                                                ; preds = %19, %0
  %9 = load i32, i32* %6, align 4
  %10 = load i32, i32* %3, align 4
  %11 = icmp slt i32 %9, %10
  br i1 %11, label %12, label %22

12:                                               ; preds = %8
  %13 = load i32, i32* %5, align 4
  %14 = load i32, i32* %6, align 4
  %15 = sext i32 %14 to i64
  %16 = getelementptr inbounds [13 x i32], [13 x i32]* @days, i64 0, i64 %15
  %17 = load i32, i32* %16, align 4
  %18 = add nsw i32 %13, %17
  store i32 %18, i32* %5, align 4
  br label %19

19:                                               ; preds = %12
  %20 = load i32, i32* %6, align 4
  %21 = add nsw i32 %20, 1
  store i32 %21, i32* %6, align 4
  br label %8

22:                                               ; preds = %8
  %23 = load i32, i32* %5, align 4
  %24 = load i32, i32* %4, align 4
  %25 = add nsw i32 %23, %24
  store i32 %25, i32* %5, align 4
  %26 = load i32, i32* %3, align 4
  %27 = icmp sgt i32 %26, 2
  br i1 %27, label %28, label %35

28:                                               ; preds = %22
  %29 = load i32, i32* %2, align 4
  %30 = call i32 @isleapyear(i32 %29)
  %31 = icmp ne i32 %30, 0
  br i1 %31, label %32, label %35

32:                                               ; preds = %28
  %33 = load i32, i32* %5, align 4
  %34 = add nsw i32 %33, 1
  store i32 %34, i32* %5, align 4
  br label %35

35:                                               ; preds = %32, %28, %22
  %36 = load i32, i32* %5, align 4
  %37 = call i32 (i8*, ...) @printf(i8* getelementptr inbounds ([4 x i8], [4 x i8]* @.str.1, i64 0, i64 0), i32 %36)
  ret i32 0
}

declare dso_local i32 @__isoc99_scanf(i8*, ...) #1

; Function Attrs: noinline nounwind uwtable
define internal i32 @isleapyear(i32 %0) #0 {
  %2 = alloca i32, align 4
  store i32 %0, i32* %2, align 4
  %3 = load i32, i32* %2, align 4
  %4 = srem i32 %3, 4
  %5 = icmp eq i32 %4, 0
  br i1 %5, label %6, label %10

6:                                                ; preds = %1
  %7 = load i32, i32* %2, align 4
  %8 = srem i32 %7, 100
  %9 = icmp ne i32 %8, 0
  br i1 %9, label %14, label %10

10:                                               ; preds = %6, %1
  %11 = load i32, i32* %2, align 4
  %12 = srem i32 %11, 400
  %13 = icmp eq i32 %12, 0
  br label %14

14:                                               ; preds = %10, %6
  %15 = phi i1 [ true, %6 ], [ %13, %10 ]
  %16 = zext i1 %15 to i32
  ret i32 %16
}

declare dso_local i32 @printf(i8*, ...) #1


!llvm.module.flags = !{!0}
!llvm.ident = !{!1}

!0 = !{i32 1, !"wchar_size", i32 4}
!1 = !{!"clang version 10.0.0-4ubuntu1 "}
